; Function Attrs: nounwind uwtable
define internal void @dissect_rx_sr_indication_body_value(ptr noundef %0, ptr noundef %1) #0 {
  %3 = alloca i32, align 4
  %4 = alloca i32, align 4
  %5 = load i32, ptr @hf_nfapi_number_of_srs, align 4
  %6 = call ptr @ptvcursor_add_ret_uint(ptr noundef %0, i32 noundef %5, i32 noundef 2, i32 noundef 0, ptr noundef nonnull %4) #7
  %7 = load i32, ptr @ett_nfapi_sr_indication_pdu_list, align 4
  %8 = load i32, ptr %4, align 4
  %.not.i = icmp eq i32 %8, 0
  br i1 %.not.i, label %dissect_array_value.exit, label %9

9:                                                ; preds = %2
  %10 = call ptr (ptr, i32, i32, ptr, ...) @ptvcursor_add_text_with_subtree(ptr noundef %0, i32 noundef -1, i32 noundef %7, ptr noundef nonnull @.str.1839, ptr noundef nonnull @.str.2183) #7
  br label %11

11:                                               ; preds = %11, %9
  %12 = phi i32 [ 0, %9 ], [ %21, %11 ]
  %.016.i = phi i16 [ 0, %9 ], [ %20, %11 ]
  %13 = call ptr (ptr, i32, i32, ptr, ...) @ptvcursor_add_text_with_subtree(ptr noundef %0, i32 noundef -1, i32 noundef %7, ptr noundef nonnull @.str.1840, i32 noundef %12) #7
  call void @llvm.lifetime.start.p0(i64 4, ptr nonnull %3)
  %14 = load i32, ptr @hf_nfapi_instance_length, align 4
  %15 = call ptr @ptvcursor_add_ret_uint(ptr noundef %0, i32 noundef %14, i32 noundef 2, i32 noundef 0, ptr noundef nonnull %3) #7
  %16 = call i32 @ptvcursor_current_offset(ptr noundef %0) #7
  %17 = load i32, ptr %3, align 4
  %18 = add i32 %16, -2
  %19 = add i32 %18, %17
  call fastcc void @dissect_tlv_list(ptr noundef %0, ptr noundef %1, i32 noundef %19)
  call void @llvm.lifetime.end.p0(i64 4, ptr nonnull %3)
  call void @ptvcursor_pop_subtree(ptr noundef %0) #7
  %20 = add i16 %.016.i, 1
  %21 = zext i16 %20 to i32
  %22 = icmp ugt i32 %8, %21
  br i1 %22, label %11, label %23, !llvm.loop !4

23:                                               ; preds = %11
  call void @ptvcursor_pop_subtree(ptr noundef %0) #7
  br label %dissect_array_value.exit

dissect_array_value.exit:                         ; preds = %2, %23
  ret void
}